target datalayout = "e-m:e-p270:32:32-p271:32:32-p272:64:64-i64:64-i128:128-f80:128-n8:16:32:64-S128"
target triple = "x86_64-pc-linux-gnu"

%struct.prov_sha3_meth_st = type { ptr, ptr, ptr }
%struct.keccak_st = type { [5 x [5 x i64]], [168 x i8], i64, i64, i64, i8, %struct.prov_sha3_meth_st, i32 }

; Function Attrs: nounwind uwtable
define internal i32 @shake_squeeze(ptr noundef %0, ptr noundef %1, ptr noundef %2, i64 noundef %3) #0 {
  %5 = alloca i32, align 4
  %6 = alloca ptr, align 8
  %7 = alloca ptr, align 8
  %8 = alloca ptr, align 8
  %9 = alloca i64, align 8
  %10 = alloca i32, align 4
  %11 = alloca ptr, align 8
  %12 = alloca i32, align 4
  store ptr %0, ptr %6, align 8, !tbaa !3
  store ptr %1, ptr %7, align 8, !tbaa !10
  store ptr %2, ptr %8, align 8, !tbaa !20
  store i64 %3, ptr %9, align 8, !tbaa !12
  call void @llvm.lifetime.start.p0(i64 4, ptr %10) #5
  store i32 1, ptr %10, align 4, !tbaa !22
  call void @llvm.lifetime.start.p0(i64 8, ptr %11) #5
  %13 = load ptr, ptr %6, align 8, !tbaa !3
  store ptr %13, ptr %11, align 8, !tbaa !7
  %14 = call i32 @ossl_prov_is_running()
  %15 = icmp ne i32 %14, 0
  br i1 %15, label %17, label %16

16:                                               ; preds = %4
  store i32 0, ptr %5, align 4
  store i32 1, ptr %12, align 4
  br label %40

17:                                               ; preds = %4
  %18 = load ptr, ptr %11, align 8, !tbaa !7
  %19 = getelementptr inbounds nuw %struct.keccak_st, ptr %18, i32 0, i32 6
  %20 = getelementptr inbounds nuw %struct.prov_sha3_meth_st, ptr %19, i32 0, i32 2
  %21 = load ptr, ptr %20, align 8, !tbaa !29
  %22 = icmp eq ptr %21, null
  br i1 %22, label %23, label %24

23:                                               ; preds = %17
  store i32 0, ptr %5, align 4
  store i32 1, ptr %12, align 4
  br label %40

24:                                               ; preds = %17
  %25 = load i64, ptr %9, align 8, !tbaa !12
  %26 = icmp ugt i64 %25, 0
  br i1 %26, label %27, label %36

27:                                               ; preds = %24
  %28 = load ptr, ptr %11, align 8, !tbaa !7
  %29 = getelementptr inbounds nuw %struct.keccak_st, ptr %28, i32 0, i32 6
  %30 = getelementptr inbounds nuw %struct.prov_sha3_meth_st, ptr %29, i32 0, i32 2
  %31 = load ptr, ptr %30, align 8, !tbaa !29
  %32 = load ptr, ptr %11, align 8, !tbaa !7
  %33 = load ptr, ptr %7, align 8, !tbaa !10
  %34 = load i64, ptr %9, align 8, !tbaa !12
  %35 = call i32 %31(ptr noundef %32, ptr noundef %33, i64 noundef %34)
  store i32 %35, ptr %10, align 4, !tbaa !22
  br label %36

36:                                               ; preds = %27, %24
  %37 = load i64, ptr %9, align 8, !tbaa !12
  %38 = load ptr, ptr %8, align 8, !tbaa !20
  store i64 %37, ptr %38, align 8, !tbaa !12
  %39 = load i32, ptr %10, align 4, !tbaa !22
  store i32 %39, ptr %5, align 4
  store i32 1, ptr %12, align 4
  br label %40

40:                                               ; preds = %36, %23, %16
  call void @llvm.lifetime.end.p0(i64 8, ptr %11) #5
  call void @llvm.lifetime.end.p0(i64 4, ptr %10) #5
  %41 = load i32, ptr %5, align 4
  ret i32 %41
}