; Function Attrs: nounwind uwtable
define internal i32 @shake_squeeze(ptr noundef %0, ptr noundef %1, ptr noundef writeonly captures(none) %2, i64 noundef %3) #0 {
  %5 = tail call i32 @ossl_prov_is_running() #5
  %.not = icmp eq i32 %5, 0
  br i1 %.not, label %14, label %6

6:                                                ; preds = %4
  %7 = getelementptr inbounds nuw i8, ptr %0, i64 416
  %8 = load ptr, ptr %7, align 8, !tbaa !21
  %9 = icmp eq ptr %8, null
  br i1 %9, label %14, label %10

10:                                               ; preds = %6
  %.not13 = icmp eq i64 %3, 0
  br i1 %.not13, label %13, label %11

11:                                               ; preds = %10
  %12 = tail call i32 %8(ptr noundef nonnull %0, ptr noundef %1, i64 noundef %3) #5
  br label %13

13:                                               ; preds = %11, %10
  %.010 = phi i32 [ %12, %11 ], [ 1, %10 ]
  store i64 %3, ptr %2, align 8, !tbaa !17
  br label %14

14:                                               ; preds = %6, %4, %13
  %.0 = phi i32 [ %.010, %13 ], [ 0, %4 ], [ 0, %6 ]
  ret i32 %.0
}